(dp0
S'inner_power_lim_low'
p1
F-50.0
sS'general_power_lim_high'
p2
F100.0
sS'current_lim_low'
p3
F-100.0
sS'general_power_lim_low'
p4
F-100.0
sS'current_lim_high'
p5
F100.0
sS'inner_power_lim_high'
p6
F50.0
s.