(dp0
S'bar_lower_reflected_power'
p1
F0.0
sS'input_incident_power'
p2
F0.0
sS'bar_upper_incident_power'
p3
F0.0
sS'output_reflected_power'
p4
F0.0
sS'bar_lower_incident_power'
p5
F0.0
sS'bar_upper_reflected_power'
p6
F0.0
sS'input_reflected_power'
p7
F0.0
sS'output_incident_power'
p8
F0.0
s.